target datalayout = "e-m:e-p270:32:32-p271:32:32-p272:64:64-i64:64-i128:128-f80:128-n8:16:32:64-S128"
target triple = "x86_64-pc-linux-gnu"

%"class.boost::urls::ipv6_address" = type { %"struct.std::array" }
%"struct.std::array" = type { [16 x i8] }

; Function Attrs: inlinehint mustprogress nounwind uwtable
define linkonce_odr noundef i32 @_ZSt8__memcmpIhhEiPKT_PKT0_m(ptr noundef %0, ptr noundef %1, i64 noundef %2) #1 comdat {
  %4 = alloca ptr, align 8
  %5 = alloca ptr, align 8
  %6 = alloca i64, align 8
  store ptr %0, ptr %4, align 8, !tbaa !7
  store ptr %1, ptr %5, align 8, !tbaa !7
  store i64 %2, ptr %6, align 8, !tbaa !17
  %7 = load ptr, ptr %4, align 8, !tbaa !7
  %8 = load ptr, ptr %5, align 8, !tbaa !7
  %9 = load i64, ptr %6, align 8, !tbaa !17
  %10 = mul i64 1, %9
  %11 = call i32 @memcmp(ptr noundef %7, ptr noundef %8, i64 noundef %10) #16
  ret i32 %11
}

; Function Attrs: mustprogress uwtable
define linkonce_odr hidden noundef zeroext i1 @_ZNSt7__equalILb1EE5equalIhEEbPKT_S4_S4_(ptr noundef %0, ptr noundef %1, ptr noundef %2) #5 comdat align 2 {
  %4 = alloca i1, align 1
  %5 = alloca ptr, align 8
  %6 = alloca ptr, align 8
  %7 = alloca ptr, align 8
  %8 = alloca i64, align 8
  %9 = alloca i32, align 4
  store ptr %0, ptr %5, align 8, !tbaa !7
  store ptr %1, ptr %6, align 8, !tbaa !7
  store ptr %2, ptr %7, align 8, !tbaa !7
  call void @llvm.lifetime.start.p0(i64 8, ptr %8) #16
  %10 = load ptr, ptr %6, align 8, !tbaa !7
  %11 = load ptr, ptr %5, align 8, !tbaa !7
  %12 = ptrtoint ptr %10 to i64
  %13 = ptrtoint ptr %11 to i64
  %14 = sub i64 %12, %13
  store i64 %14, ptr %8, align 8, !tbaa !17
  %15 = load i64, ptr %8, align 8, !tbaa !17
  %16 = icmp ne i64 %15, 0
  br i1 %16, label %17, label %24

17:                                               ; preds = %3
  %18 = load ptr, ptr %5, align 8, !tbaa !7
  %19 = load ptr, ptr %7, align 8, !tbaa !7
  %20 = load i64, ptr %8, align 8, !tbaa !17
  %21 = call noundef i32 @_ZSt8__memcmpIhhEiPKT_PKT0_m(ptr noundef %18, ptr noundef %19, i64 noundef %20)
  %22 = icmp ne i32 %21, 0
  %23 = xor i1 %22, true
  store i1 %23, ptr %4, align 1
  store i32 1, ptr %9, align 4
  br label %25

24:                                               ; preds = %3
  store i32 0, ptr %9, align 4
  br label %25

25:                                               ; preds = %24, %17
  call void @llvm.lifetime.end.p0(i64 8, ptr %8) #16
  %26 = load i32, ptr %9, align 4
  switch i32 %26, label %30 [
    i32 0, label %27
    i32 1, label %28
  ]

27:                                               ; preds = %25
  store i1 true, ptr %4, align 1
  br label %28

28:                                               ; preds = %27, %25
  %29 = load i1, ptr %4, align 1
  ret i1 %29

30:                                               ; preds = %25
  unreachable
}

; Function Attrs: inlinehint mustprogress uwtable
define linkonce_odr noundef zeroext i1 @_ZSt12__equal_aux1IPKhS1_EbT_S2_T0_(ptr noundef %0, ptr noundef %1, ptr noundef %2) #0 comdat {
  %4 = alloca ptr, align 8
  %5 = alloca ptr, align 8
  %6 = alloca ptr, align 8
  %7 = alloca i8, align 1
  store ptr %0, ptr %4, align 8, !tbaa !7
  store ptr %1, ptr %5, align 8, !tbaa !7
  store ptr %2, ptr %6, align 8, !tbaa !7
  call void @llvm.lifetime.start.p0(i64 1, ptr %7) #16
  store i8 1, ptr %7, align 1, !tbaa !26
  %8 = load ptr, ptr %4, align 8, !tbaa !7
  %9 = load ptr, ptr %5, align 8, !tbaa !7
  %10 = load ptr, ptr %6, align 8, !tbaa !7
  %11 = call noundef zeroext i1 @_ZNSt7__equalILb1EE5equalIhEEbPKT_S4_S4_(ptr noundef %8, ptr noundef %9, ptr noundef %10)
  call void @llvm.lifetime.end.p0(i64 1, ptr %7) #16
  ret i1 %11
}

; Function Attrs: inlinehint mustprogress nounwind uwtable
define linkonce_odr noundef ptr @_ZSt12__niter_baseIPKhET_S2_(ptr noundef %0) #1 comdat {
  %2 = alloca ptr, align 8
  store ptr %0, ptr %2, align 8, !tbaa !7
  %3 = load ptr, ptr %2, align 8, !tbaa !7
  ret ptr %3
}

; Function Attrs: mustprogress nounwind uwtable
define linkonce_odr hidden noundef ptr @_ZNSt14__array_traitsIhLm16EE6_S_ptrERA16_Kh(ptr noundef nonnull align 1 dereferenceable(16) %0) #2 comdat align 2 {
  %2 = alloca ptr, align 8
  store ptr %0, ptr %2, align 8, !tbaa !7
  %3 = load ptr, ptr %2, align 8, !tbaa !7
  %4 = getelementptr inbounds [16 x i8], ptr %3, i64 0, i64 0
  ret ptr %4
}

; Function Attrs: inlinehint mustprogress uwtable
define linkonce_odr noundef zeroext i1 @_ZSt11__equal_auxIPKhS1_EbT_S2_T0_(ptr noundef %0, ptr noundef %1, ptr noundef %2) #0 comdat {
  %4 = alloca ptr, align 8
  %5 = alloca ptr, align 8
  %6 = alloca ptr, align 8
  store ptr %0, ptr %4, align 8, !tbaa !7
  store ptr %1, ptr %5, align 8, !tbaa !7
  store ptr %2, ptr %6, align 8, !tbaa !7
  %7 = load ptr, ptr %4, align 8, !tbaa !7
  %8 = call noundef ptr @_ZSt12__niter_baseIPKhET_S2_(ptr noundef %7) #16
  %9 = load ptr, ptr %5, align 8, !tbaa !7
  %10 = call noundef ptr @_ZSt12__niter_baseIPKhET_S2_(ptr noundef %9) #16
  %11 = load ptr, ptr %6, align 8, !tbaa !7
  %12 = call noundef ptr @_ZSt12__niter_baseIPKhET_S2_(ptr noundef %11) #16
  %13 = call noundef zeroext i1 @_ZSt12__equal_aux1IPKhS1_EbT_S2_T0_(ptr noundef %8, ptr noundef %10, ptr noundef %12)
  ret i1 %13
}

; Function Attrs: mustprogress nounwind uwtable
define linkonce_odr hidden noundef ptr @_ZNKSt5arrayIhLm16EE4dataEv(ptr noundef nonnull align 1 dereferenceable(16) %0) #2 comdat align 2 {
  %2 = alloca ptr, align 8
  store ptr %0, ptr %2, align 8, !tbaa !7
  %3 = load ptr, ptr %2, align 8
  %4 = getelementptr inbounds nuw %"struct.std::array", ptr %3, i32 0, i32 0
  %5 = call noundef ptr @_ZNSt14__array_traitsIhLm16EE6_S_ptrERA16_Kh(ptr noundef nonnull align 1 dereferenceable(16) %4) #16
  ret ptr %5
}

; Function Attrs: inlinehint mustprogress uwtable
define linkonce_odr noundef zeroext i1 @_ZSt5equalIPKhS1_EbT_S2_T0_(ptr noundef %0, ptr noundef %1, ptr noundef %2) #0 comdat {
  %4 = alloca ptr, align 8
  %5 = alloca ptr, align 8
  %6 = alloca ptr, align 8
  store ptr %0, ptr %4, align 8, !tbaa !7
  store ptr %1, ptr %5, align 8, !tbaa !7
  store ptr %2, ptr %6, align 8, !tbaa !7
  %7 = load ptr, ptr %4, align 8, !tbaa !7
  %8 = load ptr, ptr %5, align 8, !tbaa !7
  %9 = load ptr, ptr %6, align 8, !tbaa !7
  %10 = call noundef zeroext i1 @_ZSt11__equal_auxIPKhS1_EbT_S2_T0_(ptr noundef %7, ptr noundef %8, ptr noundef %9)
  ret i1 %10
}

; Function Attrs: mustprogress nounwind uwtable
define linkonce_odr hidden noundef ptr @_ZNKSt5arrayIhLm16EE3endEv(ptr noundef nonnull align 1 dereferenceable(16) %0) #2 comdat align 2 {
  %2 = alloca ptr, align 8
  store ptr %0, ptr %2, align 8, !tbaa !7
  %3 = load ptr, ptr %2, align 8
  %4 = call noundef ptr @_ZNKSt5arrayIhLm16EE4dataEv(ptr noundef nonnull align 1 dereferenceable(16) %3) #16
  %5 = getelementptr inbounds nuw i8, ptr %4, i64 16
  ret ptr %5
}

; Function Attrs: mustprogress nounwind uwtable
define linkonce_odr hidden noundef ptr @_ZNKSt5arrayIhLm16EE5beginEv(ptr noundef nonnull align 1 dereferenceable(16) %0) #2 comdat align 2 {
  %2 = alloca ptr, align 8
  store ptr %0, ptr %2, align 8, !tbaa !7
  %3 = load ptr, ptr %2, align 8
  %4 = call noundef ptr @_ZNKSt5arrayIhLm16EE4dataEv(ptr noundef nonnull align 1 dereferenceable(16) %3) #16
  ret ptr %4
}

; Function Attrs: noinline noreturn nounwind uwtable
define linkonce_odr hidden void @__clang_call_terminate(ptr noundef %0) #3 comdat {
  %2 = call ptr @__cxa_begin_catch(ptr %0) #16
  call void @_ZSt9terminatev() #17
  unreachable
}

; Function Attrs: inlinehint mustprogress uwtable
define linkonce_odr noundef zeroext i1 @_ZSteqIhLm16EEbRKSt5arrayIT_XT0_EES4_(ptr noundef nonnull align 1 dereferenceable(16) %0, ptr noundef nonnull align 1 dereferenceable(16) %1) #0 comdat {
  %3 = alloca ptr, align 8
  %4 = alloca ptr, align 8
  store ptr %0, ptr %3, align 8, !tbaa !7
  store ptr %1, ptr %4, align 8, !tbaa !7
  %5 = load ptr, ptr %3, align 8, !tbaa !7
  %6 = call noundef ptr @_ZNKSt5arrayIhLm16EE5beginEv(ptr noundef nonnull align 1 dereferenceable(16) %5) #16
  %7 = load ptr, ptr %3, align 8, !tbaa !7
  %8 = call noundef ptr @_ZNKSt5arrayIhLm16EE3endEv(ptr noundef nonnull align 1 dereferenceable(16) %7) #16
  %9 = load ptr, ptr %4, align 8, !tbaa !7
  %10 = call noundef ptr @_ZNKSt5arrayIhLm16EE5beginEv(ptr noundef nonnull align 1 dereferenceable(16) %9) #16
  %11 = call noundef zeroext i1 @_ZSt5equalIPKhS1_EbT_S2_T0_(ptr noundef %6, ptr noundef %8, ptr noundef %10)
  ret i1 %11
}

; Function Attrs: mustprogress nounwind uwtable
define linkonce_odr hidden noundef zeroext i1 @_ZN5boost4urlseqERKNS0_12ipv6_addressES3_(ptr noundef nonnull align 1 dereferenceable(16) %0, ptr noundef nonnull align 1 dereferenceable(16) %1) #2 comdat personality ptr @__gxx_personality_v0 {
  %3 = alloca ptr, align 8
  %4 = alloca ptr, align 8
  store ptr %0, ptr %3, align 8, !tbaa !7
  store ptr %1, ptr %4, align 8, !tbaa !7
  %5 = load ptr, ptr %3, align 8, !tbaa !7
  %6 = getelementptr inbounds nuw %"class.boost::urls::ipv6_address", ptr %5, i32 0, i32 0
  %7 = load ptr, ptr %4, align 8, !tbaa !7
  %8 = getelementptr inbounds nuw %"class.boost::urls::ipv6_address", ptr %7, i32 0, i32 0
  %9 = invoke noundef zeroext i1 @_ZSteqIhLm16EEbRKSt5arrayIT_XT0_EES4_(ptr noundef nonnull align 1 dereferenceable(16) %6, ptr noundef nonnull align 1 dereferenceable(16) %8)
          to label %10 unwind label %11

10:                                               ; preds = %2
  ret i1 %9

11:                                               ; preds = %2
  %12 = landingpad { ptr, i32 }
          catch ptr null
  %13 = extractvalue { ptr, i32 } %12, 0
  call void @__clang_call_terminate(ptr %13) #17
  unreachable
}

; Function Attrs: mustprogress nounwind uwtable
define linkonce_odr hidden void @_ZN5boost4urls12ipv6_addressC2Ev(ptr noundef nonnull align 1 dereferenceable(16) %0) unnamed_addr #2 comdat align 2 {
  %2 = alloca ptr, align 8
  store ptr %0, ptr %2, align 8, !tbaa !7
  %3 = load ptr, ptr %2, align 8
  %4 = getelementptr inbounds nuw %"class.boost::urls::ipv6_address", ptr %3, i32 0, i32 0
  %5 = getelementptr inbounds nuw %"struct.std::array", ptr %4, i32 0, i32 0
  %6 = getelementptr inbounds i8, ptr %5, i64 16
  br label %7

7:                                                ; preds = %7, %1
  %8 = phi ptr [ %5, %1 ], [ %9, %7 ]
  store i8 0, ptr %8, align 1, !tbaa !16
  %9 = getelementptr inbounds i8, ptr %8, i64 1
  %10 = icmp eq ptr %9, %6
  br i1 %10, label %11, label %7

11:                                               ; preds = %7
  ret void
}

; Function Attrs: mustprogress nounwind uwtable
define noundef zeroext i1 @_ZNK5boost4urls12ipv6_address14is_unspecifiedEv(ptr noundef nonnull align 1 dereferenceable(16) %0) #2 align 2 {
  %2 = alloca ptr, align 8
  %3 = alloca %"class.boost::urls::ipv6_address", align 1
  store ptr %0, ptr %2, align 8, !tbaa !7
  %4 = load ptr, ptr %2, align 8
  call void @llvm.lifetime.start.p0(i64 16, ptr %3) #16
  call void @llvm.memset.p0.i64(ptr align 1 %3, i8 0, i64 16, i1 false)
  call void @_ZN5boost4urls12ipv6_addressC2Ev(ptr noundef nonnull align 1 dereferenceable(16) %3) #16
  %5 = call noundef zeroext i1 @_ZN5boost4urlseqERKNS0_12ipv6_addressES3_(ptr noundef nonnull align 1 dereferenceable(16) %4, ptr noundef nonnull align 1 dereferenceable(16) %3) #16
  call void @llvm.lifetime.end.p0(i64 16, ptr %3) #16
  ret i1 %5
}